target datalayout = "e-m:e-p270:32:32-p271:32:32-p272:64:64-i64:64-i128:128-f80:128-n8:16:32:64-S128"
target triple = "x86_64-pc-linux-gnu"

%struct.hb_segment_properties_t = type { i32, i32, ptr, ptr, ptr }

; Function Attrs: mustprogress nounwind uwtable
define hidden i32 @hb_segment_properties_hash(ptr noundef %0) #0 {
  %2 = alloca ptr, align 8
  store ptr %0, ptr %2, align 8
  %3 = load ptr, ptr %2, align 8
  %4 = getelementptr inbounds %struct.hb_segment_properties_t, ptr %3, i32 0, i32 0
  %5 = load i32, ptr %4, align 8
  %6 = mul i32 %5, 31
  %7 = load ptr, ptr %2, align 8
  %8 = getelementptr inbounds %struct.hb_segment_properties_t, ptr %7, i32 0, i32 1
  %9 = load i32, ptr %8, align 4
  %10 = add i32 %6, %9
  %11 = mul i32 %10, 31
  %12 = zext i32 %11 to i64
  %13 = load ptr, ptr %2, align 8
  %14 = getelementptr inbounds %struct.hb_segment_properties_t, ptr %13, i32 0, i32 2
  %15 = load ptr, ptr %14, align 8
  %16 = ptrtoint ptr %15 to i64
  %17 = add nsw i64 %12, %16
  %18 = trunc i64 %17 to i32
  ret i32 %18
}