; Function Attrs: mustprogress nofree norecurse nosync nounwind willreturn memory(argmem: read) uwtable
define hidden i32 @hb_segment_properties_hash(ptr nocapture noundef readonly %0) local_unnamed_addr #0 {
  %2 = load i32, ptr %0, align 8
  %3 = mul i32 %2, 31
  %4 = getelementptr inbounds i8, ptr %0, i64 4
  %5 = load i32, ptr %4, align 4
  %6 = add i32 %3, %5
  %7 = mul i32 %6, 31
  %8 = getelementptr inbounds i8, ptr %0, i64 8
  %9 = load ptr, ptr %8, align 8
  %10 = ptrtoint ptr %9 to i64
  %11 = trunc i64 %10 to i32
  %12 = add i32 %7, %11
  ret i32 %12
}